target datalayout = "e-m:e-p270:32:32-p271:32:32-p272:64:64-i64:64-i128:128-f80:128-n8:16:32:64-S128"
target triple = "x86_64-pc-linux-gnu"

%"class.std::__cxx11::basic_string" = type { %"struct.std::__cxx11::basic_string<char>::_Alloc_hider", i64, %union.anon }
%"struct.std::__cxx11::basic_string<char>::_Alloc_hider" = type { ptr }
%union.anon = type { i64, [8 x i8] }

; Function Attrs: alwaysinline mustprogress nounwind uwtable
define internal noundef i32 @_ZN7Imf_3_412_GLOBAL__N_16fmix32Ej(i32 noundef %0) #14 {
  %2 = alloca i32, align 4
  store i32 %0, ptr %2, align 4, !tbaa !16
  %3 = load i32, ptr %2, align 4, !tbaa !16
  %4 = lshr i32 %3, 16
  %5 = load i32, ptr %2, align 4, !tbaa !16
  %6 = xor i32 %5, %4
  store i32 %6, ptr %2, align 4, !tbaa !16
  %7 = load i32, ptr %2, align 4, !tbaa !16
  %8 = mul i32 %7, -2048144789
  store i32 %8, ptr %2, align 4, !tbaa !16
  %9 = load i32, ptr %2, align 4, !tbaa !16
  %10 = lshr i32 %9, 13
  %11 = load i32, ptr %2, align 4, !tbaa !16
  %12 = xor i32 %11, %10
  store i32 %12, ptr %2, align 4, !tbaa !16
  %13 = load i32, ptr %2, align 4, !tbaa !16
  %14 = mul i32 %13, -1028477387
  store i32 %14, ptr %2, align 4, !tbaa !16
  %15 = load i32, ptr %2, align 4, !tbaa !16
  %16 = lshr i32 %15, 16
  %17 = load i32, ptr %2, align 4, !tbaa !16
  %18 = xor i32 %17, %16
  store i32 %18, ptr %2, align 4, !tbaa !16
  %19 = load i32, ptr %2, align 4, !tbaa !16
  ret i32 %19
}

; Function Attrs: inlinehint mustprogress nounwind uwtable
define internal noundef i32 @_ZN7Imf_3_412_GLOBAL__N_16rotl32Eja(i32 noundef %0, i8 noundef signext %1) #8 {
  %3 = alloca i32, align 4
  %4 = alloca i8, align 1
  store i32 %0, ptr %3, align 4, !tbaa !16
  store i8 %1, ptr %4, align 1, !tbaa !20
  %5 = load i32, ptr %3, align 4, !tbaa !16
  %6 = load i8, ptr %4, align 1, !tbaa !20
  %7 = sext i8 %6 to i32
  %8 = shl i32 %5, %7
  %9 = load i32, ptr %3, align 4, !tbaa !16
  %10 = load i8, ptr %4, align 1, !tbaa !20
  %11 = sext i8 %10 to i32
  %12 = sub nsw i32 32, %11
  %13 = lshr i32 %9, %12
  %14 = or i32 %8, %13
  ret i32 %14
}

; Function Attrs: alwaysinline mustprogress nounwind uwtable
define internal noundef i32 @_ZN7Imf_3_412_GLOBAL__N_110getblock32EPKji(ptr noundef %0, i32 noundef %1) #14 {
  %3 = alloca ptr, align 8
  %4 = alloca i32, align 4
  store ptr %0, ptr %3, align 8, !tbaa !45
  store i32 %1, ptr %4, align 4, !tbaa !16
  %5 = load ptr, ptr %3, align 8, !tbaa !45
  %6 = load i32, ptr %4, align 4, !tbaa !16
  %7 = sext i32 %6 to i64
  %8 = getelementptr inbounds i32, ptr %5, i64 %7
  %9 = load i32, ptr %8, align 4, !tbaa !16
  ret i32 %9
}

; Function Attrs: mustprogress nounwind uwtable
define available_externally noundef ptr @_ZNKSt7__cxx1112basic_stringIcSt11char_traitsIcESaIcEE7_M_dataEv(ptr noundef nonnull align 8 dereferenceable(32) %0) #5 align 2 {
  %2 = alloca ptr, align 8
  store ptr %0, ptr %2, align 8, !tbaa !8
  %3 = load ptr, ptr %2, align 8
  %4 = getelementptr inbounds nuw %"class.std::__cxx11::basic_string", ptr %3, i32 0, i32 0
  %5 = getelementptr inbounds nuw %"struct.std::__cxx11::basic_string<char>::_Alloc_hider", ptr %4, i32 0, i32 0
  %6 = load ptr, ptr %5, align 8, !tbaa !217
  ret ptr %6
}

; Function Attrs: mustprogress uwtable
define internal void @_ZN7Imf_3_412_GLOBAL__N_118MurmurHash3_x86_32EPKvijPv(ptr noundef %0, i32 noundef %1, i32 noundef %2, ptr noundef %3) #6 {
  %5 = alloca ptr, align 8
  %6 = alloca i32, align 4
  %7 = alloca i32, align 4
  %8 = alloca ptr, align 8
  %9 = alloca ptr, align 8
  %10 = alloca i32, align 4
  %11 = alloca i32, align 4
  %12 = alloca i32, align 4
  %13 = alloca i32, align 4
  %14 = alloca ptr, align 8
  %15 = alloca i32, align 4
  %16 = alloca i32, align 4
  %17 = alloca ptr, align 8
  %18 = alloca i32, align 4
  store ptr %0, ptr %5, align 8, !tbaa !72
  store i32 %1, ptr %6, align 4, !tbaa !16
  store i32 %2, ptr %7, align 4, !tbaa !16
  store ptr %3, ptr %8, align 8, !tbaa !72
  call void @llvm.lifetime.start.p0(i64 8, ptr %9) #3
  %19 = load ptr, ptr %5, align 8, !tbaa !72
  store ptr %19, ptr %9, align 8, !tbaa !10
  call void @llvm.lifetime.start.p0(i64 4, ptr %10) #3
  %20 = load i32, ptr %6, align 4, !tbaa !16
  %21 = sdiv i32 %20, 4
  store i32 %21, ptr %10, align 4, !tbaa !16
  call void @llvm.lifetime.start.p0(i64 4, ptr %11) #3
  %22 = load i32, ptr %7, align 4, !tbaa !16
  store i32 %22, ptr %11, align 4, !tbaa !16
  call void @llvm.lifetime.start.p0(i64 4, ptr %12) #3
  store i32 -862048943, ptr %12, align 4, !tbaa !16
  call void @llvm.lifetime.start.p0(i64 4, ptr %13) #3
  store i32 461845907, ptr %13, align 4, !tbaa !16
  call void @llvm.lifetime.start.p0(i64 8, ptr %14) #3
  %23 = load ptr, ptr %9, align 8, !tbaa !10
  %24 = load i32, ptr %10, align 4, !tbaa !16
  %25 = mul nsw i32 %24, 4
  %26 = sext i32 %25 to i64
  %27 = getelementptr inbounds i8, ptr %23, i64 %26
  store ptr %27, ptr %14, align 8, !tbaa !45
  call void @llvm.lifetime.start.p0(i64 4, ptr %15) #3
  %28 = load i32, ptr %10, align 4, !tbaa !16
  %29 = sub nsw i32 0, %28
  store i32 %29, ptr %15, align 4, !tbaa !16
  br label %30

30:                                               ; preds = %52, %4
  %31 = load i32, ptr %15, align 4, !tbaa !16
  %32 = icmp ne i32 %31, 0
  br i1 %32, label %34, label %33

33:                                               ; preds = %30
  call void @llvm.lifetime.end.p0(i64 4, ptr %15) #3
  br label %55

34:                                               ; preds = %30
  call void @llvm.lifetime.start.p0(i64 4, ptr %16) #3
  %35 = load ptr, ptr %14, align 8, !tbaa !45
  %36 = load i32, ptr %15, align 4, !tbaa !16
  %37 = call noundef i32 @_ZN7Imf_3_412_GLOBAL__N_110getblock32EPKji(ptr noundef %35, i32 noundef %36)
  store i32 %37, ptr %16, align 4, !tbaa !16
  %38 = load i32, ptr %16, align 4, !tbaa !16
  %39 = mul i32 %38, -862048943
  store i32 %39, ptr %16, align 4, !tbaa !16
  %40 = load i32, ptr %16, align 4, !tbaa !16
  %41 = call noundef i32 @_ZN7Imf_3_412_GLOBAL__N_16rotl32Eja(i32 noundef %40, i8 noundef signext 15)
  store i32 %41, ptr %16, align 4, !tbaa !16
  %42 = load i32, ptr %16, align 4, !tbaa !16
  %43 = mul i32 %42, 461845907
  store i32 %43, ptr %16, align 4, !tbaa !16
  %44 = load i32, ptr %16, align 4, !tbaa !16
  %45 = load i32, ptr %11, align 4, !tbaa !16
  %46 = xor i32 %45, %44
  store i32 %46, ptr %11, align 4, !tbaa !16
  %47 = load i32, ptr %11, align 4, !tbaa !16
  %48 = call noundef i32 @_ZN7Imf_3_412_GLOBAL__N_16rotl32Eja(i32 noundef %47, i8 noundef signext 13)
  store i32 %48, ptr %11, align 4, !tbaa !16
  %49 = load i32, ptr %11, align 4, !tbaa !16
  %50 = mul i32 %49, 5
  %51 = add i32 %50, -430675100
  store i32 %51, ptr %11, align 4, !tbaa !16
  call void @llvm.lifetime.end.p0(i64 4, ptr %16) #3
  br label %52

52:                                               ; preds = %34
  %53 = load i32, ptr %15, align 4, !tbaa !16
  %54 = add nsw i32 %53, 1
  store i32 %54, ptr %15, align 4, !tbaa !16
  br label %30, !llvm.loop !191

55:                                               ; preds = %33
  call void @llvm.lifetime.start.p0(i64 8, ptr %17) #3
  %56 = load ptr, ptr %9, align 8, !tbaa !10
  %57 = load i32, ptr %10, align 4, !tbaa !16
  %58 = mul nsw i32 %57, 4
  %59 = sext i32 %58 to i64
  %60 = getelementptr inbounds i8, ptr %56, i64 %59
  store ptr %60, ptr %17, align 8, !tbaa !10
  call void @llvm.lifetime.start.p0(i64 4, ptr %18) #3
  store i32 0, ptr %18, align 4, !tbaa !16
  %61 = load i32, ptr %6, align 4, !tbaa !16
  %62 = and i32 %61, 3
  switch i32 %62, label %95 [
    i32 3, label %63
    i32 2, label %71
    i32 1, label %79
  ]

63:                                               ; preds = %55
  %64 = load ptr, ptr %17, align 8, !tbaa !10
  %65 = getelementptr inbounds i8, ptr %64, i64 2
  %66 = load i8, ptr %65, align 1, !tbaa !20
  %67 = zext i8 %66 to i32
  %68 = shl i32 %67, 16
  %69 = load i32, ptr %18, align 4, !tbaa !16
  %70 = xor i32 %69, %68
  store i32 %70, ptr %18, align 4, !tbaa !16
  br label %71

71:                                               ; preds = %55, %63
  %72 = load ptr, ptr %17, align 8, !tbaa !10
  %73 = getelementptr inbounds i8, ptr %72, i64 1
  %74 = load i8, ptr %73, align 1, !tbaa !20
  %75 = zext i8 %74 to i32
  %76 = shl i32 %75, 8
  %77 = load i32, ptr %18, align 4, !tbaa !16
  %78 = xor i32 %77, %76
  store i32 %78, ptr %18, align 4, !tbaa !16
  br label %79

79:                                               ; preds = %55, %71
  %80 = load ptr, ptr %17, align 8, !tbaa !10
  %81 = getelementptr inbounds i8, ptr %80, i64 0
  %82 = load i8, ptr %81, align 1, !tbaa !20
  %83 = zext i8 %82 to i32
  %84 = load i32, ptr %18, align 4, !tbaa !16
  %85 = xor i32 %84, %83
  store i32 %85, ptr %18, align 4, !tbaa !16
  %86 = load i32, ptr %18, align 4, !tbaa !16
  %87 = mul i32 %86, -862048943
  store i32 %87, ptr %18, align 4, !tbaa !16
  %88 = load i32, ptr %18, align 4, !tbaa !16
  %89 = call noundef i32 @_ZN7Imf_3_412_GLOBAL__N_16rotl32Eja(i32 noundef %88, i8 noundef signext 15)
  store i32 %89, ptr %18, align 4, !tbaa !16
  %90 = load i32, ptr %18, align 4, !tbaa !16
  %91 = mul i32 %90, 461845907
  store i32 %91, ptr %18, align 4, !tbaa !16
  %92 = load i32, ptr %18, align 4, !tbaa !16
  %93 = load i32, ptr %11, align 4, !tbaa !16
  %94 = xor i32 %93, %92
  store i32 %94, ptr %11, align 4, !tbaa !16
  br label %95

95:                                               ; preds = %79, %55
  %96 = load i32, ptr %6, align 4, !tbaa !16
  %97 = load i32, ptr %11, align 4, !tbaa !16
  %98 = xor i32 %97, %96
  store i32 %98, ptr %11, align 4, !tbaa !16
  %99 = load i32, ptr %11, align 4, !tbaa !16
  %100 = call noundef i32 @_ZN7Imf_3_412_GLOBAL__N_16fmix32Ej(i32 noundef %99)
  store i32 %100, ptr %11, align 4, !tbaa !16
  %101 = load i32, ptr %11, align 4, !tbaa !16
  %102 = load ptr, ptr %8, align 8, !tbaa !72
  store i32 %101, ptr %102, align 4, !tbaa !16
  call void @llvm.lifetime.end.p0(i64 4, ptr %18) #3
  call void @llvm.lifetime.end.p0(i64 8, ptr %17) #3
  call void @llvm.lifetime.end.p0(i64 8, ptr %14) #3
  call void @llvm.lifetime.end.p0(i64 4, ptr %13) #3
  call void @llvm.lifetime.end.p0(i64 4, ptr %12) #3
  call void @llvm.lifetime.end.p0(i64 4, ptr %11) #3
  call void @llvm.lifetime.end.p0(i64 4, ptr %10) #3
  call void @llvm.lifetime.end.p0(i64 8, ptr %9) #3
  ret void
}

; Function Attrs: mustprogress nounwind uwtable
define available_externally noundef i64 @_ZNKSt7__cxx1112basic_stringIcSt11char_traitsIcESaIcEE4sizeEv(ptr noundef nonnull align 8 dereferenceable(32) %0) #5 align 2 {
  %2 = alloca ptr, align 8
  store ptr %0, ptr %2, align 8, !tbaa !8
  %3 = load ptr, ptr %2, align 8
  %4 = getelementptr inbounds nuw %"class.std::__cxx11::basic_string", ptr %3, i32 0, i32 1
  %5 = load i64, ptr %4, align 8, !tbaa !54
  ret i64 %5
}

; Function Attrs: mustprogress nounwind uwtable
define available_externally noundef ptr @_ZNKSt7__cxx1112basic_stringIcSt11char_traitsIcESaIcEE5c_strEv(ptr noundef nonnull align 8 dereferenceable(32) %0) #5 align 2 {
  %2 = alloca ptr, align 8
  store ptr %0, ptr %2, align 8, !tbaa !8
  %3 = load ptr, ptr %2, align 8
  %4 = call noundef ptr @_ZNKSt7__cxx1112basic_stringIcSt11char_traitsIcESaIcEE7_M_dataEv(ptr noundef nonnull align 8 dereferenceable(32) %3)
  ret ptr %4
}

; Function Attrs: mustprogress uwtable
define noundef i32 @_ZN7Imf_3_410IDManifest12MurmurHash32ERKNSt7__cxx1112basic_stringIcSt11char_traitsIcESaIcEEE(ptr noundef nonnull align 8 dereferenceable(32) %0) #6 align 2 {
  %2 = alloca ptr, align 8
  %3 = alloca i32, align 4
  store ptr %0, ptr %2, align 8, !tbaa !8
  call void @llvm.lifetime.start.p0(i64 4, ptr %3) #3
  %4 = load ptr, ptr %2, align 8, !tbaa !8
  %5 = call noundef ptr @_ZNKSt7__cxx1112basic_stringIcSt11char_traitsIcESaIcEE5c_strEv(ptr noundef nonnull align 8 dereferenceable(32) %4) #3
  %6 = load ptr, ptr %2, align 8, !tbaa !8
  %7 = call noundef i64 @_ZNKSt7__cxx1112basic_stringIcSt11char_traitsIcESaIcEE4sizeEv(ptr noundef nonnull align 8 dereferenceable(32) %6) #3
  %8 = trunc i64 %7 to i32
  call void @_ZN7Imf_3_412_GLOBAL__N_118MurmurHash3_x86_32EPKvijPv(ptr noundef %5, i32 noundef %8, i32 noundef 0, ptr noundef %3)
  %9 = load i32, ptr %3, align 4, !tbaa !16
  call void @llvm.lifetime.end.p0(i64 4, ptr %3) #3
  ret i32 %9
}