; Function Attrs: mustprogress nofree norecurse nosync nounwind willreturn memory(read, inaccessiblemem: none) uwtable
define noundef i32 @_ZN7Imf_3_410IDManifest12MurmurHash32ERKNSt7__cxx1112basic_stringIcSt11char_traitsIcESaIcEEE(ptr noundef nonnull readonly align 8 captures(none) dereferenceable(32) %0) local_unnamed_addr #13 align 2 {
  %2 = load ptr, ptr %0, align 8, !tbaa !19
  %3 = getelementptr inbounds nuw i8, ptr %0, i64 8
  %4 = load i64, ptr %3, align 8, !tbaa !15
  %5 = trunc i64 %4 to i32
  %6 = sdiv i32 %5, 4
  %7 = shl nsw i32 %6, 2
  %8 = sext i32 %7 to i64
  %9 = getelementptr inbounds i8, ptr %2, i64 %8
  %.off.i = add i32 %5, 3
  %.not38.i = icmp ult i32 %.off.i, 7
  br i1 %.not38.i, label %._crit_edge.i, label %.lr.ph.preheader.i

.lr.ph.preheader.i:                               ; preds = %1
  %10 = sub nsw i32 0, %6
  %11 = sext i32 %10 to i64
  br label %.lr.ph.i

._crit_edge.i:                                    ; preds = %.lr.ph.i, %1
  %.035.lcssa.i = phi i32 [ 0, %1 ], [ %21, %.lr.ph.i ]
  %12 = and i32 %5, 3
  switch i32 %12, label %default.unreachable [
    i32 3, label %23
    i32 2, label %28
    i32 1, label %34
    i32 0, label %_ZN7Imf_3_412_GLOBAL__N_118MurmurHash3_x86_32EPKvijPv.exit
  ]

.lr.ph.i:                                         ; preds = %.lr.ph.i, %.lr.ph.preheader.i
  %indvars.iv.i = phi i64 [ %11, %.lr.ph.preheader.i ], [ %indvars.iv.next.i, %.lr.ph.i ]
  %.03540.i = phi i32 [ 0, %.lr.ph.preheader.i ], [ %21, %.lr.ph.i ]
  %13 = getelementptr inbounds i32, ptr %9, i64 %indvars.iv.i
  %14 = load i32, ptr %13, align 4, !tbaa !13
  %15 = mul i32 %14, -862048943
  %16 = tail call noundef i32 @llvm.fshl.i32(i32 %15, i32 %15, i32 15)
  %17 = mul i32 %16, 461845907
  %18 = xor i32 %17, %.03540.i
  %19 = tail call noundef i32 @llvm.fshl.i32(i32 %18, i32 %18, i32 13)
  %20 = mul i32 %19, 5
  %21 = add i32 %20, -430675100
  %indvars.iv.next.i = add nsw i64 %indvars.iv.i, 1
  %22 = icmp eq i64 %indvars.iv.next.i, 0
  br i1 %22, label %._crit_edge.i, label %.lr.ph.i, !llvm.loop !193

23:                                               ; preds = %._crit_edge.i
  %24 = getelementptr inbounds nuw i8, ptr %9, i64 2
  %25 = load i8, ptr %24, align 1, !tbaa !3
  %26 = zext i8 %25 to i32
  %27 = shl nuw nsw i32 %26, 16
  br label %28

28:                                               ; preds = %23, %._crit_edge.i
  %.0.i = phi i32 [ 0, %._crit_edge.i ], [ %27, %23 ]
  %29 = getelementptr inbounds nuw i8, ptr %9, i64 1
  %30 = load i8, ptr %29, align 1, !tbaa !3
  %31 = zext i8 %30 to i32
  %32 = shl nuw nsw i32 %31, 8
  %33 = or disjoint i32 %32, %.0.i
  br label %34

34:                                               ; preds = %28, %._crit_edge.i
  %.1.i = phi i32 [ 0, %._crit_edge.i ], [ %33, %28 ]
  %35 = load i8, ptr %9, align 1, !tbaa !3
  %36 = zext i8 %35 to i32
  %37 = xor i32 %.1.i, %36
  %38 = mul i32 %37, -862048943
  %39 = tail call noundef i32 @llvm.fshl.i32(i32 %38, i32 %38, i32 15)
  %40 = mul i32 %39, 461845907
  %41 = xor i32 %40, %.035.lcssa.i
  br label %_ZN7Imf_3_412_GLOBAL__N_118MurmurHash3_x86_32EPKvijPv.exit

default.unreachable:                              ; preds = %._crit_edge.i
  unreachable

_ZN7Imf_3_412_GLOBAL__N_118MurmurHash3_x86_32EPKvijPv.exit: ; preds = %._crit_edge.i, %34
  %.136.i = phi i32 [ %.035.lcssa.i, %._crit_edge.i ], [ %41, %34 ]
  %42 = xor i32 %.136.i, %5
  %43 = lshr i32 %42, 16
  %44 = xor i32 %43, %42
  %45 = mul i32 %44, -2048144789
  %46 = lshr i32 %45, 13
  %47 = xor i32 %46, %45
  %48 = mul i32 %47, -1028477387
  %49 = lshr i32 %48, 16
  %50 = xor i32 %49, %48
  ret i32 %50
}